(lp0
(F5.5
F0.59999999999999998
tp1
a(F0.69999999999999996
F5.9000000000000004
tp2
a(F2.1000000000000001
F4.5
tp3
a(F1.6000000000000001
F5.5
tp4
a(F3.2999999999999998
F4.9000000000000004
tp5
a(F0.69999999999999996
F0.69999999999999996
tp6
a(F0.80000000000000004
F5.4000000000000004
tp7
a(F4.0
F1.8
tp8
a(F1.2
F5.0999999999999996
tp9
a(F2.7999999999999998
F0.29999999999999999
tp10
a(F3.2000000000000002
F3.7000000000000002
tp11
a(F1.6000000000000001
F5.5999999999999996
tp12
a(F5.0
F4.2000000000000002
tp13
a(F1.7
F5.2999999999999998
tp14
a(F4.4000000000000004
F1.7
tp15
a(F1.1000000000000001
F4.9000000000000004
tp16
a(F1.1000000000000001
F3.5
tp17
a(F1.5
F1.0
tp18
a(F0.5
F3.0
tp19
a(F4.7000000000000002
F0.10000000000000001
tp20
a(F2.1000000000000001
F0.29999999999999999
tp21
a(F1.0
F0.80000000000000004
tp22
a(F4.4000000000000004
F0.29999999999999999
tp23
a(F5.0999999999999996
F0.80000000000000004
tp24
a(F0.29999999999999999
F0.80000000000000004
tp25
a(F1.8999999999999999
F4.5
tp26
a(F3.8999999999999999
F2.7999999999999998
tp27
a(F0.29999999999999999
F5.2000000000000002
tp28
a(F2.2000000000000002
F4.0999999999999996
tp29
a(F4.0999999999999996
F0.20000000000000001
tp30
a(F5.5
F1.8
tp31
a(F3.5
F1.8
tp32
a(F4.9000000000000004
F0.90000000000000002
tp33
a(F4.7999999999999998
F4.2999999999999998
tp34
a(F1.8
F2.2999999999999998
tp35
a(F3.6000000000000001
F2.0
tp36
a(F4.9000000000000004
F2.8999999999999999
tp37
a(F2.8999999999999999
F2.3999999999999999
tp38
a(F1.8
F0.10000000000000001
tp39
a(F4.5
F4.5
tp40
a(F1.0
F4.5999999999999996
tp41
a(F0.59999999999999998
F3.8999999999999999
tp42
a(F2.2000000000000002
F4.5999999999999996
tp43
a(F5.2999999999999998
F1.8999999999999999
tp44
a(F3.5
F2.7999999999999998
tp45
a(F4.0
F1.7
tp46
a(F4.7999999999999998
F5.7000000000000002
tp47
a(F0.29999999999999999
F2.1000000000000001
tp48
a(F0.10000000000000001
F5.7999999999999998
tp49
a(F2.7999999999999998
F2.7999999999999998
tp50
a(F2.6000000000000001
F0.90000000000000002
tp51
a(F2.3999999999999999
F2.8999999999999999
tp52
a(F5.9000000000000004
F4.5999999999999996
tp53
a(F5.0999999999999996
F2.1000000000000001
tp54
a(F2.2000000000000002
F5.7000000000000002
tp55
a(F5.9000000000000004
F5.5
tp56
a(F0.10000000000000001
F0.20000000000000001
tp57
a(F1.2
F3.8999999999999999
tp58
a(F3.2000000000000002
F0.69999999999999996
tp59
a(F3.2000000000000002
F4.4000000000000004
tp60
a(F5.0
F5.0999999999999996
tp61
a(F0.59999999999999998
F4.5999999999999996
tp62
a(F5.0999999999999996
F0.69999999999999996
tp63
a(F1.7
F0.90000000000000002
tp64
a(F2.5
F4.5
tp65
a(F3.7000000000000002
F5.5
tp66
a(F3.3999999999999999
F2.2000000000000002
tp67
a(F4.0
F1.2
tp68
a(F0.0
F4.2999999999999998
tp69
a(F3.2000000000000002
F1.3
tp70
a(F5.5
F1.3999999999999999
tp71
a(F2.1000000000000001
F1.0
tp72
a(F3.1000000000000001
F2.7999999999999998
tp73
a(F5.5
F3.0
tp74
a(F5.5
F2.0
tp75
a(F1.1000000000000001
F2.7000000000000002
tp76
a(F1.3999999999999999
F3.7999999999999998
tp77
a(F2.6000000000000001
F2.1000000000000001
tp78
a(F2.0
F1.6000000000000001
tp79
a(F5.0
F2.6000000000000001
tp80
a(F3.8999999999999999
F1.8
tp81
a(F2.7000000000000002
F4.2999999999999998
tp82
a(F4.0
F1.0
tp83
a(F5.2000000000000002
F0.5
tp84
a(F1.8999999999999999
F4.9000000000000004
tp85
a(F4.0
F0.10000000000000001
tp86
a(F2.1000000000000001
F6.0
tp87
a(F0.80000000000000004
F1.7
tp88
a(F3.0
F4.2999999999999998
tp89
a(F4.4000000000000004
F4.0
tp90
a(F3.3999999999999999
F3.0
tp91
a(F4.7999999999999998
F2.7000000000000002
tp92
a(F0.5
F3.7999999999999998
tp93
a(F4.9000000000000004
F5.0999999999999996
tp94
a(F2.7000000000000002
F5.5
tp95
a(F1.3999999999999999
F1.7
tp96
a(F1.3999999999999999
F0.20000000000000001
tp97
a(F1.6000000000000001
F2.2999999999999998
tp98
a(F0.69999999999999996
F4.4000000000000004
tp99
a(F2.1000000000000001
F5.5
tp100
a(F5.2000000000000002
F1.8999999999999999
tp101
a(F2.7999999999999998
F5.7999999999999998
tp102
a(F4.2000000000000002
F0.90000000000000002
tp103
a(F0.40000000000000002
F2.2000000000000002
tp104
a(F0.20000000000000001
F5.7000000000000002
tp105
a(F0.10000000000000001
F0.29999999999999999
tp106
a(F1.3
F2.0
tp107
a(F2.6000000000000001
F2.3999999999999999
tp108
a(F1.2
F5.5999999999999996
tp109
a(F5.7000000000000002
F1.3
tp110
a(F4.5999999999999996
F0.20000000000000001
tp111
a(F6.0
F6.0
tp112
a(F1.8
F4.0999999999999996
tp113
a(F3.3999999999999999
F0.10000000000000001
tp114
a(F3.0
F0.29999999999999999
tp115
a(F2.6000000000000001
F4.9000000000000004
tp116
a(F5.2999999999999998
F5.2000000000000002
tp117
a(F2.8999999999999999
F0.69999999999999996
tp118
a(F5.2000000000000002
F4.0999999999999996
tp119
a(F4.5
F2.0
tp120
a(F2.1000000000000001
F5.9000000000000004
tp121
a(F0.59999999999999998
F3.1000000000000001
tp122
a(F1.3
F2.2999999999999998
tp123
a(F3.3999999999999999
F4.7999999999999998
tp124
a(F4.2000000000000002
F2.7999999999999998
tp125
a(F3.7999999999999998
F2.8999999999999999
tp126
a(F0.90000000000000002
F1.8999999999999999
tp127
a(F3.0
F3.0
tp128
a(F1.3999999999999999
F4.7999999999999998
tp129
a(F0.40000000000000002
F4.2999999999999998
tp130
a(F5.7999999999999998
F1.5
tp131
a(F3.2000000000000002
F0.90000000000000002
tp132
a(F1.5
F3.2000000000000002
tp133
a(F4.5999999999999996
F0.29999999999999999
tp134
a(F1.2
F5.7000000000000002
tp135
a(F5.0999999999999996
F3.7000000000000002
tp136
a(F1.1000000000000001
F4.2000000000000002
tp137
a(F6.0
F2.8999999999999999
tp138
a(F0.90000000000000002
F2.1000000000000001
tp139
a(F4.7000000000000002
F3.2000000000000002
tp140
a(F3.5
F4.7999999999999998
tp141
a(F4.2000000000000002
F4.7000000000000002
tp142
a(F6.0
F4.7000000000000002
tp143
a(F2.7999999999999998
F2.2999999999999998
tp144
a(F1.6000000000000001
F2.7000000000000002
tp145
a(F1.2
F3.2000000000000002
tp146
a(F3.7999999999999998
F1.6000000000000001
tp147
a(F0.69999999999999996
F2.2000000000000002
tp148
a(F0.10000000000000001
F4.5999999999999996
tp149
a(F0.10000000000000001
F0.59999999999999998
tp150
a(F1.1000000000000001
F3.0
tp151
a(F5.2999999999999998
F0.29999999999999999
tp152
a(F5.7999999999999998
F4.7000000000000002
tp153
a(F3.6000000000000001
F3.7000000000000002
tp154
a(F0.59999999999999998
F2.1000000000000001
tp155
a(F5.7000000000000002
F2.8999999999999999
tp156
a(F5.5999999999999996
F1.3999999999999999
tp157
a(F4.0
F3.8999999999999999
tp158
a(F5.7000000000000002
F3.2000000000000002
tp159
a(F5.0999999999999996
F5.2000000000000002
tp160
a(F4.5999999999999996
F1.3999999999999999
tp161
a(F4.2999999999999998
F1.2
tp162
a(F2.2999999999999998
F5.0
tp163
a(F0.80000000000000004
F0.0
tp164
a(F3.5
F0.20000000000000001
tp165
a(F4.2000000000000002
F3.5
tp166
a(F1.3
F2.5
tp167
a(F5.5999999999999996
F0.40000000000000002
tp168
a(F1.0
F2.5
tp169
a(F1.5
F1.3
tp170
a(F1.0
F3.8999999999999999
tp171
a(F4.9000000000000004
F2.2000000000000002
tp172
a(F4.5
F0.69999999999999996
tp173
a(F1.2
F4.5
tp174
a(F0.80000000000000004
F4.2999999999999998
tp175
a(F4.4000000000000004
F4.4000000000000004
tp176
a(F1.5
F1.2
tp177
a(F1.6000000000000001
F3.1000000000000001
tp178
a(F0.90000000000000002
F5.4000000000000004
tp179
a(F0.90000000000000002
F5.0
tp180
a(F2.2999999999999998
F1.1000000000000001
tp181
a(F1.2
F0.20000000000000001
tp182
a(F5.5
F2.2999999999999998
tp183
a(F5.2000000000000002
F4.2000000000000002
tp184
a(F1.7
F2.6000000000000001
tp185
a(F0.20000000000000001
F4.5
tp186
a(F2.3999999999999999
F4.7000000000000002
tp187
a(F5.7999999999999998
F1.3
tp188
a(F3.3999999999999999
F2.3999999999999999
tp189
a(F4.2999999999999998
F4.2999999999999998
tp190
a(F5.4000000000000004
F0.69999999999999996
tp191
a(F5.9000000000000004
F4.7999999999999998
tp192
a(F5.4000000000000004
F4.0999999999999996
tp193
a(F5.4000000000000004
F3.0
tp194
a(F1.3
F5.2999999999999998
tp195
a(F4.2000000000000002
F2.2000000000000002
tp196
a(F4.5999999999999996
F4.7000000000000002
tp197
a(F1.0
F3.1000000000000001
tp198
a(F1.8999999999999999
F1.6000000000000001
tp199
a(F5.2999999999999998
F2.7000000000000002
tp200
a.