(lp0
(F4.2000000000000002
F3.7000000000000002
tp1
a(F13.300000000000001
F9.9000000000000004
tp2
a(F10.699999999999999
F13.300000000000001
tp3
a(F4.2999999999999998
F8.5
tp4
a(F4.4000000000000004
F7.0
tp5
a(F0.10000000000000001
F11.1
tp6
a(F13.6
F10.0
tp7
a(F9.5
F14.199999999999999
tp8
a(F3.7999999999999998
F12.0
tp9
a(F8.0999999999999996
F11.0
tp10
a(F1.6000000000000001
F0.40000000000000002
tp11
a(F4.7999999999999998
F7.0999999999999996
tp12
a(F12.1
F1.7
tp13
a(F4.4000000000000004
F5.0999999999999996
tp14
a(F11.800000000000001
F3.7000000000000002
tp15
a(F5.7000000000000002
F9.0
tp16
a(F2.6000000000000001
F13.699999999999999
tp17
a(F14.9
F3.2000000000000002
tp18
a(F11.699999999999999
F6.5999999999999996
tp19
a(F12.699999999999999
F0.29999999999999999
tp20
a(F8.6999999999999993
F5.7999999999999998
tp21
a(F6.5999999999999996
F2.3999999999999999
tp22
a(F14.5
F7.5
tp23
a(F8.5999999999999996
F3.3999999999999999
tp24
a(F4.7000000000000002
F5.5999999999999996
tp25
a(F11.6
F11.300000000000001
tp26
a(F14.6
F8.8000000000000007
tp27
a(F11.9
F3.5
tp28
a(F7.5
F10.300000000000001
tp29
a(F4.7000000000000002
F5.0
tp30
a(F0.59999999999999998
F7.7999999999999998
tp31
a(F9.6999999999999993
F0.80000000000000004
tp32
a(F10.6
F3.6000000000000001
tp33
a(F3.2000000000000002
F2.8999999999999999
tp34
a(F2.0
F12.1
tp35
a(F13.800000000000001
F13.5
tp36
a(F2.0
F1.8
tp37
a(F7.9000000000000004
F3.0
tp38
a(F7.0
F10.6
tp39
a(F12.800000000000001
F2.5
tp40
a(F9.0999999999999996
F12.4
tp41
a(F14.4
F10.199999999999999
tp42
a(F10.800000000000001
F3.2999999999999998
tp43
a(F9.3000000000000007
F2.7000000000000002
tp44
a(F3.2000000000000002
F5.2000000000000002
tp45
a(F2.2999999999999998
F6.5999999999999996
tp46
a(F8.9000000000000004
F0.69999999999999996
tp47
a(F11.199999999999999
F2.3999999999999999
tp48
a(F7.9000000000000004
F5.9000000000000004
tp49
a(F14.300000000000001
F13.1
tp50
a(F10.6
F12.199999999999999
tp51
a(F13.1
F3.0
tp52
a(F1.3999999999999999
F6.2999999999999998
tp53
a(F8.9000000000000004
F7.5999999999999996
tp54
a(F13.699999999999999
F3.3999999999999999
tp55
a(F3.0
F3.2999999999999998
tp56
a(F4.2999999999999998
F0.59999999999999998
tp57
a(F4.0999999999999996
F7.4000000000000004
tp58
a(F11.4
F12.300000000000001
tp59
a(F4.0
F14.800000000000001
tp60
a(F4.4000000000000004
F10.6
tp61
a(F10.6
F2.2000000000000002
tp62
a(F7.9000000000000004
F0.29999999999999999
tp63
a(F13.4
F7.4000000000000004
tp64
a(F4.2999999999999998
F5.0
tp65
a(F11.5
F2.5
tp66
a(F14.199999999999999
F14.4
tp67
a(F3.3999999999999999
F8.6999999999999993
tp68
a(F7.0999999999999996
F6.5
tp69
a(F6.5999999999999996
F0.80000000000000004
tp70
a(F11.800000000000001
F7.7000000000000002
tp71
a(F8.0
F7.5
tp72
a(F2.6000000000000001
F3.1000000000000001
tp73
a(F7.5999999999999996
F7.4000000000000004
tp74
a(F4.5
F2.5
tp75
a(F8.4000000000000004
F14.6
tp76
a(F0.20000000000000001
F5.5
tp77
a(F5.2999999999999998
F10.5
tp78
a(F13.300000000000001
F6.9000000000000004
tp79
a(F8.5999999999999996
F5.0
tp80
a(F5.7000000000000002
F0.10000000000000001
tp81
a(F2.7999999999999998
F12.6
tp82
a(F5.9000000000000004
F3.7000000000000002
tp83
a(F12.9
F12.5
tp84
a(F3.8999999999999999
F9.0
tp85
a(F9.1999999999999993
F10.800000000000001
tp86
a(F9.3000000000000007
F13.1
tp87
a(F0.69999999999999996
F5.2000000000000002
tp88
a(F7.7000000000000002
F13.1
tp89
a(F12.6
F0.5
tp90
a(F7.0
F7.7999999999999998
tp91
a(F4.4000000000000004
F14.5
tp92
a(F10.800000000000001
F1.3
tp93
a(F2.2999999999999998
F4.4000000000000004
tp94
a(F6.5999999999999996
F5.0
tp95
a(F0.59999999999999998
F3.8999999999999999
tp96
a(F9.8000000000000007
F10.199999999999999
tp97
a(F7.2000000000000002
F5.5999999999999996
tp98
a(F14.4
F3.8999999999999999
tp99
a(F4.5999999999999996
F14.199999999999999
tp100
a(F11.1
F13.699999999999999
tp101
a(F1.3999999999999999
F5.2000000000000002
tp102
a(F2.2999999999999998
F11.0
tp103
a(F11.300000000000001
F4.5999999999999996
tp104
a(F10.300000000000001
F8.4000000000000004
tp105
a(F12.9
F10.199999999999999
tp106
a(F12.0
F7.4000000000000004
tp107
a(F1.3999999999999999
F7.0999999999999996
tp108
a(F1.3999999999999999
F3.8999999999999999
tp109
a(F13.5
F5.4000000000000004
tp110
a(F6.0
F2.0
tp111
a(F9.8000000000000007
F10.800000000000001
tp112
a(F6.9000000000000004
F2.1000000000000001
tp113
a(F0.0
F14.300000000000001
tp114
a(F9.5
F9.5
tp115
a(F12.6
F12.300000000000001
tp116
a(F1.3999999999999999
F1.2
tp117
a(F2.7000000000000002
F14.4
tp118
a(F13.9
F7.9000000000000004
tp119
a(F1.0
F0.29999999999999999
tp120
a(F11.300000000000001
F7.0999999999999996
tp121
a(F11.9
F4.7000000000000002
tp122
a(F9.0
F8.8000000000000007
tp123
a(F8.0
F1.8999999999999999
tp124
a(F0.5
F0.10000000000000001
tp125
a(F14.699999999999999
F7.5
tp126
a(F7.7999999999999998
F4.4000000000000004
tp127
a(F14.800000000000001
F7.2000000000000002
tp128
a(F4.7000000000000002
F0.0
tp129
a(F2.2000000000000002
F1.2
tp130
a(F12.5
F5.7999999999999998
tp131
a(F4.7999999999999998
F7.7000000000000002
tp132
a(F13.1
F11.199999999999999
tp133
a(F8.5999999999999996
F4.0999999999999996
tp134
a(F4.0
F8.0
tp135
a(F10.199999999999999
F10.6
tp136
a(F9.6999999999999993
F8.5999999999999996
tp137
a(F6.5
F7.4000000000000004
tp138
a(F8.0
F11.199999999999999
tp139
a(F14.4
F7.0999999999999996
tp140
a(F6.0
F7.4000000000000004
tp141
a(F11.4
F10.1
tp142
a(F2.6000000000000001
F3.7999999999999998
tp143
a(F13.5
F0.5
tp144
a(F9.5
F11.4
tp145
a(F4.7000000000000002
F13.800000000000001
tp146
a(F1.0
F10.0
tp147
a(F12.1
F9.3000000000000007
tp148
a(F0.20000000000000001
F5.0
tp149
a(F1.1000000000000001
F2.5
tp150
a(F6.5999999999999996
F9.4000000000000004
tp151
a(F9.3000000000000007
F0.0
tp152
a(F11.800000000000001
F3.2000000000000002
tp153
a(F3.8999999999999999
F11.199999999999999
tp154
a(F9.8000000000000007
F0.20000000000000001
tp155
a(F13.1
F7.2999999999999998
tp156
a(F7.0999999999999996
F9.6999999999999993
tp157
a(F2.5
F1.2
tp158
a(F6.2999999999999998
F4.2999999999999998
tp159
a(F4.0
F2.3999999999999999
tp160
a(F4.7999999999999998
F0.29999999999999999
tp161
a(F14.9
F12.800000000000001
tp162
a(F13.9
F13.300000000000001
tp163
a(F0.10000000000000001
F8.0999999999999996
tp164
a(F8.4000000000000004
F5.4000000000000004
tp165
a(F4.5999999999999996
F11.9
tp166
a(F4.0
F5.5
tp167
a(F11.0
F7.2000000000000002
tp168
a(F2.1000000000000001
F12.5
tp169
a(F6.4000000000000004
F14.6
tp170
a(F8.8000000000000007
F12.4
tp171
a(F6.4000000000000004
F1.5
tp172
a(F11.4
F7.7000000000000002
tp173
a(F6.9000000000000004
F10.300000000000001
tp174
a(F7.2999999999999998
F12.199999999999999
tp175
a(F6.2999999999999998
F13.199999999999999
tp176
a(F0.80000000000000004
F0.59999999999999998
tp177
a(F1.5
F10.699999999999999
tp178
a(F12.1
F0.0
tp179
a(F6.5
F13.800000000000001
tp180
a(F8.8000000000000007
F14.0
tp181
a(F5.0999999999999996
F8.0
tp182
a(F8.1999999999999993
F8.5999999999999996
tp183
a(F1.1000000000000001
F3.3999999999999999
tp184
a(F14.0
F6.9000000000000004
tp185
a(F1.5
F4.4000000000000004
tp186
a(F4.5999999999999996
F4.0
tp187
a(F7.7999999999999998
F4.0999999999999996
tp188
a(F3.7000000000000002
F11.699999999999999
tp189
a(F12.699999999999999
F8.5
tp190
a(F11.199999999999999
F14.5
tp191
a(F7.0
F11.300000000000001
tp192
a(F1.7
F3.7000000000000002
tp193
a(F13.4
F5.0999999999999996
tp194
a(F12.4
F3.0
tp195
a(F12.0
F14.5
tp196
a(F11.5
F14.6
tp197
a(F8.0
F11.800000000000001
tp198
a(F10.199999999999999
F1.6000000000000001
tp199
a(F14.699999999999999
F3.0
tp200
a.